; Function Attrs: nofree norecurse nosync nounwind memory(readwrite, inaccessiblemem: none) uwtable
define void @SUNDlsMat_BandCopy(ptr noundef readonly captures(none) %0, ptr noundef readonly captures(none) %1, i64 noundef %2, i64 noundef %3) local_unnamed_addr #0 {
  %5 = getelementptr inbounds nuw i8, ptr %0, i64 72
  %6 = load ptr, ptr %5, align 8, !tbaa !3
  %7 = getelementptr inbounds nuw i8, ptr %1, i64 72
  %8 = load ptr, ptr %7, align 8, !tbaa !3
  %9 = getelementptr inbounds nuw i8, ptr %0, i64 8
  %10 = load i64, ptr %9, align 8, !tbaa !12
  %11 = getelementptr inbounds nuw i8, ptr %0, i64 48
  %12 = load i64, ptr %11, align 8, !tbaa !15
  %13 = getelementptr inbounds nuw i8, ptr %1, i64 48
  %14 = load i64, ptr %13, align 8, !tbaa !15
  %15 = add i64 %3, %2
  %16 = icmp sgt i64 %10, 0
  br i1 %16, label %.lr.ph24.i, label %SUNDlsMat_bandCopy.exit

.lr.ph24.i:                                       ; preds = %4
  %17 = sub i64 0, %2
  %.not20.i = icmp slt i64 %15, 0
  br i1 %.not20.i, label %SUNDlsMat_bandCopy.exit, label %.lr.ph.i

.lr.ph.i:                                         ; preds = %.lr.ph24.i, %._crit_edge.i
  %.01922.i = phi i64 [ %31, %._crit_edge.i ], [ 0, %.lr.ph24.i ]
  %18 = getelementptr inbounds nuw ptr, ptr %6, i64 %.01922.i
  %19 = load ptr, ptr %18, align 8, !tbaa !16
  %20 = getelementptr inbounds double, ptr %19, i64 %12
  %21 = getelementptr inbounds double, ptr %20, i64 %17
  %22 = getelementptr inbounds nuw ptr, ptr %8, i64 %.01922.i
  %23 = load ptr, ptr %22, align 8, !tbaa !16
  %24 = getelementptr inbounds double, ptr %23, i64 %14
  %25 = getelementptr inbounds double, ptr %24, i64 %17
  br label %26

26:                                               ; preds = %26, %.lr.ph.i
  %.021.i = phi i64 [ 0, %.lr.ph.i ], [ %30, %26 ]
  %27 = getelementptr inbounds nuw double, ptr %21, i64 %.021.i
  %28 = load double, ptr %27, align 8, !tbaa !17
  %29 = getelementptr inbounds nuw double, ptr %25, i64 %.021.i
  store double %28, ptr %29, align 8, !tbaa !17
  %30 = add nuw i64 %.021.i, 1
  %exitcond.not.i = icmp eq i64 %.021.i, %15
  br i1 %exitcond.not.i, label %._crit_edge.i, label %26

._crit_edge.i:                                    ; preds = %26
  %31 = add nuw nsw i64 %.01922.i, 1
  %exitcond27.not.i = icmp eq i64 %31, %10
  br i1 %exitcond27.not.i, label %SUNDlsMat_bandCopy.exit, label %.lr.ph.i

SUNDlsMat_bandCopy.exit:                          ; preds = %._crit_edge.i, %4, %.lr.ph24.i
  ret void
}